; Function Attrs: mustprogress nofree norecurse nosync nounwind willreturn memory(argmem: write) uwtable
define hidden void @_ZN3sat16clause_allocatorC2Ev(ptr nocapture noundef nonnull writeonly align 8 dereferenceable(568) %this) unnamed_addr #7 align 2 personality ptr @__gxx_personality_v0 {
invoke.cont:
  store ptr @.str, ptr %this, align 8
  %m_alloc_size.i = getelementptr inbounds i8, ptr %this, i64 8
  %m_free_ids.i = getelementptr inbounds i8, ptr %this, i64 560
  store ptr null, ptr %m_free_ids.i, align 8
  tail call void @llvm.memset.p0.i64(ptr noundef nonnull align 8 dereferenceable(548) %m_alloc_size.i, i8 0, i64 548, i1 false)
  ret void
}